target datalayout = "e-m:e-p270:32:32-p271:32:32-p272:64:64-i64:64-i128:128-f80:128-n8:16:32:64-S128"
target triple = "x86_64-pc-linux-gnu"

%"struct.dpx::GenericHeader" = type { i32, i32, [8 x i8], i32, i32, i32, i32, i32, [100 x i8], [24 x i8], [100 x i8], [200 x i8], [200 x i8], i32, [104 x i8], i16, i16, i32, i32, [8 x %"struct.dpx::ImageElement"], [52 x i8], i32, i32, float, float, i32, i32, [100 x i8], [24 x i8], [32 x i8], [32 x i8], [4 x i16], [2 x i32], float, float, [20 x i8] }
%"struct.dpx::ImageElement" = type { i32, i32, float, i32, float, i8, i8, i8, i8, i16, i16, i32, i32, i32, [32 x i8] }
%"class.OpenImageIO::v3_1_0::basic_string_view" = type { ptr, i64 }
%struct.tm = type { i32, i32, i32, i32, i32, i32, i32, i32, i32, i64, ptr }

@.str.2 = private unnamed_addr constant [20 x i8] c"%Y:%m:%d:%H:%M:%S%Z\00", align 1

; Function Attrs: noinline noreturn nounwind uwtable
define linkonce_odr hidden void @__clang_call_terminate(ptr noundef %0) #11 comdat {
  %2 = call ptr @__cxa_begin_catch(ptr %0) #5
  call void @_ZSt9terminatev() #22
  unreachable
}

; Function Attrs: mustprogress nounwind uwtable
define linkonce_odr noundef i64 @_ZNSt11char_traitsIcE6lengthEPKc(ptr noundef %0) #6 comdat align 2 {
  %2 = alloca ptr, align 8
  store ptr %0, ptr %2, align 8, !tbaa !45
  %3 = load ptr, ptr %2, align 8, !tbaa !45
  %4 = call i64 @strlen(ptr noundef %3) #5
  ret i64 %4
}

; Function Attrs: mustprogress nounwind uwtable
define linkonce_odr hidden void @_ZN11OpenImageIO6v3_1_017basic_string_viewIcSt11char_traitsIcEEC2EPKc(ptr noundef nonnull align 8 dereferenceable(16) %0, ptr noundef %1) unnamed_addr #6 comdat align 2 personality ptr @__gxx_personality_v0 {
  %3 = alloca ptr, align 8
  %4 = alloca ptr, align 8
  store ptr %0, ptr %3, align 8, !tbaa !49
  store ptr %1, ptr %4, align 8, !tbaa !45
  %5 = load ptr, ptr %3, align 8
  %6 = getelementptr inbounds nuw %"class.OpenImageIO::v3_1_0::basic_string_view", ptr %5, i32 0, i32 0
  %7 = load ptr, ptr %4, align 8, !tbaa !45
  store ptr %7, ptr %6, align 8, !tbaa !51
  %8 = getelementptr inbounds nuw %"class.OpenImageIO::v3_1_0::basic_string_view", ptr %5, i32 0, i32 1
  %9 = load ptr, ptr %4, align 8, !tbaa !45
  %10 = icmp ne ptr %9, null
  br i1 %10, label %11, label %15

11:                                               ; preds = %2
  %12 = load ptr, ptr %4, align 8, !tbaa !45
  %13 = invoke noundef i64 @_ZNSt11char_traitsIcE6lengthEPKc(ptr noundef %12)
          to label %14 unwind label %18

14:                                               ; preds = %11
  br label %16

15:                                               ; preds = %2
  br label %16

16:                                               ; preds = %15, %14
  %17 = phi i64 [ %13, %14 ], [ 0, %15 ]
  store i64 %17, ptr %8, align 8, !tbaa !54
  ret void

18:                                               ; preds = %11
  %19 = landingpad { ptr, i32 }
          catch ptr null
  %20 = extractvalue { ptr, i32 } %19, 0
  call void @__clang_call_terminate(ptr %20) #22
  unreachable
}

; Function Attrs: mustprogress uwtable
define hidden void @_ZN3dpx13GenericHeader19SetCreationTimeDateEl(ptr noundef nonnull align 4 dereferenceable(1664) %0, i64 noundef %1) #7 align 2 {
  %3 = alloca ptr, align 8
  %4 = alloca i64, align 8
  %5 = alloca [32 x i8], align 16
  %6 = alloca i64, align 8
  %7 = alloca %struct.tm, align 8
  %8 = alloca %"class.OpenImageIO::v3_1_0::basic_string_view", align 8
  store ptr %0, ptr %3, align 8, !tbaa !19
  store i64 %1, ptr %4, align 8, !tbaa !97
  %9 = load ptr, ptr %3, align 8
  call void @llvm.lifetime.start.p0(i64 32, ptr %5) #5
  call void @llvm.lifetime.start.p0(i64 8, ptr %6) #5
  %10 = load i64, ptr %4, align 8, !tbaa !97
  store i64 %10, ptr %6, align 8, !tbaa !97
  call void @llvm.lifetime.start.p0(i64 56, ptr %7) #5
  call void @_ZN11OpenImageIO6v3_1_07Sysutil14get_local_timeEPKlP2tm(ptr noundef %6, ptr noundef %7)
  %11 = getelementptr inbounds [32 x i8], ptr %5, i64 0, i64 0
  %12 = call i64 @strftime(ptr noundef %11, i64 noundef 32, ptr noundef @.str.2, ptr noundef %7) #5
  %13 = getelementptr inbounds nuw %"struct.dpx::GenericHeader", ptr %9, i32 0, i32 9
  %14 = getelementptr inbounds [24 x i8], ptr %13, i64 0, i64 0
  %15 = getelementptr inbounds [32 x i8], ptr %5, i64 0, i64 0
  call void @_ZN11OpenImageIO6v3_1_017basic_string_viewIcSt11char_traitsIcEEC2EPKc(ptr noundef nonnull align 8 dereferenceable(16) %8, ptr noundef %15) #5
  %16 = call noundef ptr @_ZN11OpenImageIO6v3_1_07Strutil11safe_strcpyEPcNS0_17basic_string_viewIcSt11char_traitsIcEEEm(ptr noundef %14, ptr noundef %8, i64 noundef 24) #5
  call void @llvm.lifetime.end.p0(i64 56, ptr %7) #5
  call void @llvm.lifetime.end.p0(i64 8, ptr %6) #5
  call void @llvm.lifetime.end.p0(i64 32, ptr %5) #5
  ret void
}